(dp0
(I1
I0
tp1
(dp2
S'degager'
p3
F-12.499999999999996
sS'shooter'
p4
F-12.499999999999996
sS'dribbler'
p5
F-12.499888644247841
ss(I0
I0
tp6
(dp7
S'degager'
p8
F-12.499999999998469
sS'shooter'
p9
F-12.499999999989113
sS'dribbler'
p10
F-12.10527682307
ss(I1
I1
tp11
(dp12
S'degager'
p13
F-12.499999999999996
sS'shooter'
p14
F-12.499999999999996
sS'dribbler'
p15
F-12.49999999999885
ss.