(dp0
(I0
I1
tp1
(dp2
S'rien'
p3
I0
sS'fonceur'
p4
I0
sS'gardien'
p5
I0
ss(I1
I0
tp6
(dp7
S'rien'
p8
I0
sS'fonceur'
p9
I0
sS'gardien'
p10
I0
ss(I0
I0
tp11
(dp12
S'rien'
p13
I0
sS'fonceur'
p14
I0
sS'gardien'
p15
I0
ss(I1
I1
tp16
(dp17
S'rien'
p18
I0
sS'fonceur'
p19
I0
sS'gardien'
p20
F-12.493652502708237
ss.