(dp0
(I1
I0
I1
I1
I4
I1
tp1
(dp2
S'qshooter_haut'
p3
F43.28680722803773
sS'qdribler_vers_zone'
p4
F43.26686747164164
sS'qdegager'
p5
F43.286807229160594
sS'qshooter_fort'
p6
F43.38114781875155
sS'qdribler_vers_but'
p7
F43.26686747164164
sS'qshooter_malin'
p8
F43.26686747164164
sS'qshooter_dansbut'
p9
F43.26686747164164
sS'qshooter_bas'
p10
F43.28680722803773
ss(I1
I1
I1
I0
I3
I1
tp11
(dp12
S'qshooter_haut'
p13
F110.49727912676734
sS'qdribler_vers_zone'
p14
F151.83604036512372
sS'qdegager'
p15
F110.4972791681061
sS'qshooter_fort'
p16
F151.83604036512372
sS'qdribler_vers_but'
p17
F151.83604036512372
sS'qshooter_malin'
p18
F151.83604036512372
sS'qshooter_dansbut'
p19
F105.33494687621507
sS'qshooter_bas'
p20
F105.33494687621507
ss(I0
I3
I0
I0
I3
I1
tp21
(dp22
S'qshooter_haut'
p23
F-77.13384513848521
sS'qdribler_vers_zone'
p24
F-37.388656106968085
sS'qdegager'
p25
F-77.13384513848521
sS'qshooter_fort'
p26
F-37.38865609833448
sS'qdribler_vers_but'
p27
F-37.388656106968085
sS'qshooter_malin'
p28
F-37.388656106968085
sS'qshooter_dansbut'
p29
F-37.388656106968085
sS'qshooter_bas'
p30
F-77.13384513848521
ss(I1
I0
I0
I0
I4
I1
tp31
(dp32
S'qshooter_haut'
p33
F35.60257784090317
sS'qdribler_vers_zone'
p34
F33.35313008422371
sS'qdegager'
p35
F35.60257784090317
sS'qshooter_fort'
p36
F33.35313008422371
sS'qdribler_vers_but'
p37
F33.35313008422371
sS'qshooter_malin'
p38
F33.35313008422371
sS'qshooter_dansbut'
p39
F33.44942629069499
sS'qshooter_bas'
p40
F33.44942629069499
ss(I0
I1
I0
I1
I4
I1
tp41
(dp42
S'qshooter_haut'
p43
F-7.065459375871212
sS'qdribler_vers_zone'
p44
F54.851650467035974
sS'qdegager'
p45
F-7.065459375871212
sS'qshooter_fort'
p46
F54.84546271755684
sS'qdribler_vers_but'
p47
F54.851650467035974
sS'qshooter_malin'
p48
F54.851650467035974
sS'qshooter_dansbut'
p49
F54.851650467035974
sS'qshooter_bas'
p50
F-7.065459375871212
ss(I1
I1
I1
I0
I4
I1
tp51
(dp52
S'qshooter_haut'
p53
F61.71053554173849
sS'qdribler_vers_zone'
p54
F98.63780177144797
sS'qdegager'
p55
F61.710535578746615
sS'qshooter_fort'
p56
F98.63861039726491
sS'qdribler_vers_but'
p57
F98.63780177144797
sS'qshooter_malin'
p58
F98.63780177144797
sS'qshooter_dansbut'
p59
F98.63780177144797
sS'qshooter_bas'
p60
F61.71053554173849
ss(I1
I3
I0
I0
I3
I0
tp61
(dp62
S'qshooter_haut'
p63
F-22.63027967399426
sS'qdribler_vers_zone'
p64
F-60.670519476600646
sS'qdegager'
p65
F-22.63027967399426
sS'qshooter_fort'
p66
F-60.670519476600646
sS'qdribler_vers_but'
p67
F-60.670519476600646
sS'qshooter_malin'
p68
F-60.670519476600646
sS'qshooter_dansbut'
p69
F-60.670519476600646
sS'qshooter_bas'
p70
F-22.63027967399426
ss(I0
I1
I0
I0
I3
I1
tp71
(dp72
S'qshooter_haut'
p73
F83.84050014787897
sS'qdribler_vers_zone'
p74
F58.310427439574944
sS'qdegager'
p75
F83.84050014787897
sS'qshooter_fort'
p76
F57.930867146027886
sS'qdribler_vers_but'
p77
F58.310427439574944
sS'qshooter_malin'
p78
F58.310427439574944
sS'qshooter_dansbut'
p79
F58.310427439574944
sS'qshooter_bas'
p80
F83.84050014787897
ss(I0
I3
I0
I1
I4
I0
tp81
(dp82
S'qshooter_haut'
p83
F-125.06907184151788
sS'qdribler_vers_zone'
p84
F-41.666672038199266
sS'qdegager'
p85
F-37.30525126922016
sS'qshooter_fort'
p86
F-41.235873113921535
sS'qdribler_vers_but'
p87
F-41.666672038199266
sS'qshooter_malin'
p88
F-41.666672038199266
sS'qshooter_dansbut'
p89
F-41.666672038199266
sS'qshooter_bas'
p90
F-41.666672038199266
ss(I1
I0
I1
I1
I4
I0
tp91
(dp92
S'qshooter_haut'
p93
F65.96876318934889
sS'qdribler_vers_zone'
p94
F65.96876318934889
sS'qdegager'
p95
F60.78455679826222
sS'qshooter_fort'
p96
F60.78455679826222
sS'qdribler_vers_but'
p97
F60.78455679826222
sS'qshooter_malin'
p98
F65.96876318934889
sS'qshooter_dansbut'
p99
F60.66819834563345
sS'qshooter_bas'
p100
F60.66819834563345
ss(I1
I3
I0
I1
I4
I1
tp101
(dp102
S'qshooter_haut'
p103
F0.7180557610004602
sS'qdribler_vers_zone'
p104
F2.2916990442994765
sS'qdegager'
p105
F-31.466666668277426
sS'qshooter_fort'
p106
F-31.466666668277426
sS'qdribler_vers_but'
p107
F-31.46632938998193
sS'qshooter_malin'
p108
F1.1740154498579138
sS'qshooter_dansbut'
p109
F-31.466666668277426
sS'qshooter_bas'
p110
F-31.466666668277426
ss(I1
I1
I0
I0
I3
I1
tp111
(dp112
S'qshooter_haut'
p113
F107.00954186486256
sS'qdribler_vers_zone'
p114
F71.84344415489095
sS'qdegager'
p115
F107.00954186486256
sS'qshooter_fort'
p116
F71.84344415489095
sS'qdribler_vers_but'
p117
F71.84344415489095
sS'qshooter_malin'
p118
F71.84344415489095
sS'qshooter_dansbut'
p119
F71.84344415489095
sS'qshooter_bas'
p120
F107.00954186486256
ss(I0
I0
I0
I0
I3
I1
tp121
(dp122
S'qshooter_haut'
p123
F18.47882245624192
sS'qdribler_vers_zone'
p124
F13.33332527603444
sS'qdegager'
p125
F18.47882245624192
sS'qshooter_fort'
p126
F13.33332527603444
sS'qdribler_vers_but'
p127
F13.33332527603444
sS'qshooter_malin'
p128
F13.33332527603444
sS'qshooter_dansbut'
p129
F13.33332527603444
sS'qshooter_bas'
p130
F18.47882245624192
ss(I1
I0
I0
I0
I4
I0
tp131
(dp132
S'qshooter_haut'
p133
F33.333316033959356
sS'qdribler_vers_zone'
p134
F33.371230924413084
sS'qdegager'
p135
F33.333316033959356
sS'qshooter_fort'
p136
F33.371230924413084
sS'qdribler_vers_but'
p137
F33.371230924413084
sS'qshooter_malin'
p138
F33.371230924413084
sS'qshooter_dansbut'
p139
F33.41087732710159
sS'qshooter_bas'
p140
F33.41087732710159
ss(I1
I0
I0
I0
I3
I0
tp141
(dp142
S'qshooter_haut'
p143
F31.702038776136096
sS'qdribler_vers_zone'
p144
F50.80385087933742
sS'qdegager'
p145
F31.702038776136096
sS'qshooter_fort'
p146
F50.80385087933742
sS'qdribler_vers_but'
p147
F50.80385087933742
sS'qshooter_malin'
p148
F50.80385087933742
sS'qshooter_dansbut'
p149
F50.80385087933742
sS'qshooter_bas'
p150
F31.702038776136096
ss(I0
I3
I0
I1
I4
I1
tp151
(dp152
S'qshooter_haut'
p153
F-59.10458946145289
sS'qdribler_vers_zone'
p154
F-21.657537188557242
sS'qdegager'
p155
F-59.104589424403464
sS'qshooter_fort'
p156
F-21.661513486987673
sS'qdribler_vers_but'
p157
F-21.657537188557242
sS'qshooter_malin'
p158
F-21.657537188557242
sS'qshooter_dansbut'
p159
F-21.61238587102889
sS'qshooter_bas'
p160
F-21.61238587102889
ss(I1
I3
I0
I1
I4
I0
tp161
(dp162
S'qshooter_haut'
p163
F-81.41873348709007
sS'qdribler_vers_zone'
p164
F-59.4229378509151
sS'qdegager'
p165
F-64.3454958083043
sS'qshooter_fort'
p166
F-59.91519364665402
sS'qdribler_vers_but'
p167
F-59.4229378509151
sS'qshooter_malin'
p168
F-59.4229378509151
sS'qshooter_dansbut'
p169
F-59.4229378509151
sS'qshooter_bas'
p170
F-59.4229378509151
ss(I1
I3
I1
I0
I4
I1
tp171
(dp172
S'qshooter_haut'
p173
F-4.699234940373589
sS'qdribler_vers_zone'
p174
F11.937267658977298
sS'qdegager'
p175
F-4.699234924712284
sS'qshooter_fort'
p176
F11.833524417968842
sS'qdribler_vers_but'
p177
F11.937267658977298
sS'qshooter_malin'
p178
F11.937267658977298
sS'qshooter_dansbut'
p179
F11.937267658977298
sS'qshooter_bas'
p180
F-4.699234940373589
ss(I1
I3
I0
I0
I4
I1
tp181
(dp182
S'qshooter_haut'
p183
F-25.952887118247226
sS'qdribler_vers_zone'
p184
F-27.88331503638044
sS'qdegager'
p185
F-25.952887118247226
sS'qshooter_fort'
p186
F-27.883314982524723
sS'qdribler_vers_but'
p187
F-27.88331503638044
sS'qshooter_malin'
p188
F-27.88331503638044
sS'qshooter_dansbut'
p189
F-27.88331503638044
sS'qshooter_bas'
p190
F-25.952887118247226
ss(I1
I3
I0
I0
I3
I1
tp191
(dp192
S'qshooter_haut'
p193
F-2.805248401104201
sS'qdribler_vers_zone'
p194
F-21.868152675675155
sS'qdegager'
p195
F-2.805248401104201
sS'qshooter_fort'
p196
F-21.866676638777086
sS'qdribler_vers_but'
p197
F-21.868152675675155
sS'qshooter_malin'
p198
F-21.868152675675155
sS'qshooter_dansbut'
p199
F-21.868152675675155
sS'qshooter_bas'
p200
F-2.805248401104201
ss(I1
I3
I1
I1
I4
I0
tp201
(dp202
S'qshooter_haut'
p203
F11.724001656041763
sS'qdribler_vers_zone'
p204
F11.724002641210362
sS'qdegager'
p205
F7.067437328088232
sS'qshooter_fort'
p206
F7.067437328088232
sS'qdribler_vers_but'
p207
F7.067437328553893
sS'qshooter_malin'
p208
F11.724002641210362
sS'qshooter_dansbut'
p209
F7.067437328088232
sS'qshooter_bas'
p210
F7.067437328088232
ss(I1
I0
I1
I0
I4
I0
tp211
(dp212
S'qshooter_haut'
p213
F60.784507844237595
sS'qdribler_vers_zone'
p214
F49.695019044498956
sS'qdegager'
p215
F60.784507844237595
sS'qshooter_fort'
p216
F49.69651461770235
sS'qdribler_vers_but'
p217
F49.695019044498956
sS'qshooter_malin'
p218
F49.695019044498956
sS'qshooter_dansbut'
p219
F49.695019044498956
sS'qshooter_bas'
p220
F60.784507844237595
ss(I1
I0
I1
I0
I3
I1
tp221
(dp222
S'qshooter_haut'
p223
F67.57667480907287
sS'qdribler_vers_zone'
p224
F66.69171913580173
sS'qdegager'
p225
F67.57667480907287
sS'qshooter_fort'
p226
F66.69171913580173
sS'qdribler_vers_but'
p227
F66.69171913580173
sS'qshooter_malin'
p228
F66.69171913580173
sS'qshooter_dansbut'
p229
F66.66688360703817
sS'qshooter_bas'
p230
F66.66688360703817
ss(I1
I0
I0
I0
I3
I1
tp231
(dp232
S'qshooter_haut'
p233
F39.96854318472568
sS'qdribler_vers_zone'
p234
F33.39036860504159
sS'qdegager'
p235
F39.96854318472568
sS'qshooter_fort'
p236
F33.39036860504159
sS'qdribler_vers_but'
p237
F33.39036860504159
sS'qshooter_malin'
p238
F33.39036860504159
sS'qshooter_dansbut'
p239
F33.672446971669864
sS'qshooter_bas'
p240
F33.672446971669864
ss(I0
I3
I0
I0
I4
I1
tp241
(dp242
S'qshooter_haut'
p243
F-82.6601574968008
sS'qdribler_vers_zone'
p244
F-28.846401155593703
sS'qdegager'
p245
F-82.6601574968008
sS'qshooter_fort'
p246
F-28.846401155593828
sS'qdribler_vers_but'
p247
F-28.846401155593703
sS'qshooter_malin'
p248
F-28.846401155593703
sS'qshooter_dansbut'
p249
F-28.846401155593703
sS'qshooter_bas'
p250
F-82.6601574968008
ss(I1
I3
I1
I0
I4
I0
tp251
(dp252
S'qshooter_haut'
p253
F1.305364015457748
sS'qdribler_vers_zone'
p254
F1.305368807379967
sS'qdegager'
p255
F-74.04923043714365
sS'qshooter_fort'
p256
F-74.04923043714365
sS'qdribler_vers_but'
p257
F-74.04923043714365
sS'qshooter_malin'
p258
F1.305364015457748
sS'qshooter_dansbut'
p259
F-74.04923043714365
sS'qshooter_bas'
p260
F1.305364015457748
ss(I0
I0
I0
I0
I3
I0
tp261
(dp262
S'qshooter_haut'
p263
F13.31500824124046
sS'qdribler_vers_zone'
p264
F13.298931562032731
sS'qdegager'
p265
F13.31500824124046
sS'qshooter_fort'
p266
F13.298931562032731
sS'qdribler_vers_but'
p267
F13.298931562032731
sS'qshooter_malin'
p268
F13.298931562032731
sS'qshooter_dansbut'
p269
F13.298931562032731
sS'qshooter_bas'
p270
F13.31500824124046
ss(I1
I0
I1
I0
I4
I1
tp271
(dp272
S'qshooter_haut'
p273
F63.814266694480956
sS'qdribler_vers_zone'
p274
F74.52366311488967
sS'qdegager'
p275
F63.814266694480956
sS'qshooter_fort'
p276
F74.52366311488967
sS'qdribler_vers_but'
p277
F74.52366311488967
sS'qshooter_malin'
p278
F74.52366311488967
sS'qshooter_dansbut'
p279
F74.52366311488967
sS'qshooter_bas'
p280
F63.814266694480956
ss(I1
I0
I0
I1
I4
I0
tp281
(dp282
S'qshooter_haut'
p283
F33.03802970446718
sS'qdribler_vers_zone'
p284
F9.958743025023475
sS'qdegager'
p285
F9.958743025023475
sS'qshooter_fort'
p286
F9.958743025023475
sS'qdribler_vers_but'
p287
F9.958743025023475
sS'qshooter_malin'
p288
F9.958743025023475
sS'qshooter_dansbut'
p289
F9.958743025023475
sS'qshooter_bas'
p290
F9.958743025023475
ss(I1
I1
I0
I0
I4
I1
tp291
(dp292
S'qshooter_haut'
p293
F39.400617228578874
sS'qdribler_vers_zone'
p294
F101.43906133953645
sS'qdegager'
p295
F39.400617228578874
sS'qshooter_fort'
p296
F104.71403946955508
sS'qdribler_vers_but'
p297
F104.71403946922759
sS'qshooter_malin'
p298
F101.43906133953645
sS'qshooter_dansbut'
p299
F107.1463703735491
sS'qshooter_bas'
p300
F39.400617228578874
ss(I0
I0
I0
I1
I4
I1
tp301
(dp302
S'qshooter_haut'
p303
F33.333333284024825
sS'qdribler_vers_zone'
p304
F33.333333303999936
sS'qdegager'
p305
F33.333333284024825
sS'qshooter_fort'
p306
F33.333333303999936
sS'qdribler_vers_but'
p307
F33.333333303999936
sS'qshooter_malin'
p308
F33.333333303999936
sS'qshooter_dansbut'
p309
F33.333333304024016
sS'qshooter_bas'
p310
F33.333333304024016
ss(I0
I0
I0
I0
I4
I0
tp311
(dp312
S'qshooter_haut'
p313
F13.333333329618931
sS'qdribler_vers_zone'
p314
F13.333255758329292
sS'qdegager'
p315
F13.333333329618931
sS'qshooter_fort'
p316
F13.333255758329292
sS'qdribler_vers_but'
p317
F13.333255758329292
sS'qshooter_malin'
p318
F13.333255758329292
sS'qshooter_dansbut'
p319
F13.333255758329292
sS'qshooter_bas'
p320
F13.333333329618931
ss(I1
I3
I1
I0
I3
I1
tp321
(dp322
S'qshooter_haut'
p323
F-23.47878625526484
sS'qdribler_vers_zone'
p324
F-0.32425361793358576
sS'qdegager'
p325
F-23.478786255264843
sS'qshooter_fort'
p326
F-0.32425799339800854
sS'qdribler_vers_but'
p327
F-0.32425361793358576
sS'qshooter_malin'
p328
F-0.32425361793358576
sS'qshooter_dansbut'
p329
F-0.32425361793358576
sS'qshooter_bas'
p330
F-23.478786255264843
ss(I1
I1
I1
I1
I4
I1
tp331
(dp332
S'qshooter_haut'
p333
F109.34290179364746
sS'qdribler_vers_zone'
p334
F109.34290179364854
sS'qdegager'
p335
F109.34290179364854
sS'qshooter_fort'
p336
F109.34279515820522
sS'qdribler_vers_but'
p337
F109.34290179364854
sS'qshooter_malin'
p338
F109.34290179364854
sS'qshooter_dansbut'
p339
F109.34290179364854
sS'qshooter_bas'
p340
F109.34290179364854
ss(I0
I3
I0
I0
I4
I0
tp341
(dp342
S'qshooter_haut'
p343
F-82.51242918511845
sS'qdribler_vers_zone'
p344
F-99.48319794675552
sS'qdegager'
p345
F-82.51242918511845
sS'qshooter_fort'
p346
F-99.48319794675552
sS'qdribler_vers_but'
p347
F-99.48319794675552
sS'qshooter_malin'
p348
F-99.48319794675552
sS'qshooter_dansbut'
p349
F-99.48319794675552
sS'qshooter_bas'
p350
F-82.51242918511845
ss(I1
I3
I0
I0
I4
I0
tp351
(dp352
S'qshooter_haut'
p353
F-20.314921847742337
sS'qdribler_vers_zone'
p354
F-21.65874190000393
sS'qdegager'
p355
F-20.314921847742337
sS'qshooter_fort'
p356
F-21.658741900435725
sS'qdribler_vers_but'
p357
F-21.65874190000393
sS'qshooter_malin'
p358
F-21.65874190000393
sS'qshooter_dansbut'
p359
F-21.65874190000393
sS'qshooter_bas'
p360
F-20.314921847742337
ss(I0
I3
I0
I0
I3
I0
tp361
(dp362
S'qshooter_haut'
p363
F-44.89697974491726
sS'qdribler_vers_zone'
p364
F-67.4941004448279
sS'qdegager'
p365
F-44.89697974491726
sS'qshooter_fort'
p366
F-67.49410014410222
sS'qdribler_vers_but'
p367
F-67.4941004448279
sS'qshooter_malin'
p368
F-67.4941004448279
sS'qshooter_dansbut'
p369
F-67.4941004448279
sS'qshooter_bas'
p370
F-44.89697974491726
ss(I1
I0
I0
I1
I4
I1
tp371
(dp372
S'qshooter_haut'
p373
F23.25263543996314
sS'qdribler_vers_zone'
p374
F33.33333339877176
sS'qdegager'
p375
F23.25263543996314
sS'qshooter_fort'
p376
F33.33333339877176
sS'qdribler_vers_but'
p377
F33.33333339877176
sS'qshooter_malin'
p378
F33.33333339877176
sS'qshooter_dansbut'
p379
F33.33333339877176
sS'qshooter_bas'
p380
F23.25263543996314
ss(I0
I1
I0
I0
I4
I1
tp381
(dp382
S'qshooter_haut'
p383
F23.195978524882136
sS'qdribler_vers_zone'
p384
F78.74052752074934
sS'qdegager'
p385
F23.19597858040743
sS'qshooter_fort'
p386
F78.74050820944694
sS'qdribler_vers_but'
p387
F78.74052752074934
sS'qshooter_malin'
p388
F78.74052752074934
sS'qshooter_dansbut'
p389
F78.74052752074934
sS'qshooter_bas'
p390
F23.195978524882136
ss(I0
I0
I0
I1
I4
I0
tp391
(dp392
S'qshooter_haut'
p393
F13.333333281654419
sS'qdribler_vers_zone'
p394
F13.333333158773533
sS'qdegager'
p395
F13.333333158773533
sS'qshooter_fort'
p396
F13.333333158773533
sS'qdribler_vers_but'
p397
F13.333333158773533
sS'qshooter_malin'
p398
F13.333333158773533
sS'qshooter_dansbut'
p399
F13.333333158773533
sS'qshooter_bas'
p400
F13.333333158773533
ss(I1
I1
I0
I1
I4
I1
tp401
(dp402
S'qshooter_haut'
p403
F126.00733039724014
sS'qdribler_vers_zone'
p404
F35.03133333168209
sS'qdegager'
p405
F44.12893429228143
sS'qshooter_fort'
p406
F35.93983482954415
sS'qdribler_vers_but'
p407
F35.03133333168209
sS'qshooter_malin'
p408
F35.03133333168209
sS'qshooter_dansbut'
p409
F35.03133333168209
sS'qshooter_bas'
p410
F35.03133333168209
ss(I1
I3
I1
I0
I3
I0
tp411
(dp412
S'qshooter_haut'
p413
F-53.881332239484685
sS'qdribler_vers_zone'
p414
F-7.582212388170163
sS'qdegager'
p415
F-53.881332264519024
sS'qshooter_fort'
p416
F-78.91566837989701
sS'qdribler_vers_but'
p417
F-78.91566837989701
sS'qshooter_malin'
p418
F-7.582212368571167
sS'qshooter_dansbut'
p419
F-78.91566837989701
sS'qshooter_bas'
p420
F-53.881332239484685
ss(I0
I0
I0
I0
I4
I1
tp421
(dp422
S'qshooter_haut'
p423
F13.333333316224625
sS'qdribler_vers_zone'
p424
F32.60729273367363
sS'qdegager'
p425
F13.333333316224625
sS'qshooter_fort'
p426
F32.60729273367363
sS'qdribler_vers_but'
p427
F32.60729273367363
sS'qshooter_malin'
p428
F32.60729273367363
sS'qshooter_dansbut'
p429
F32.60729273367363
sS'qshooter_bas'
p430
F13.333333316224625
ss(I1
I0
I1
I0
I3
I0
tp431
(dp432
S'qshooter_haut'
p433
F59.369848000709574
sS'qdribler_vers_zone'
p434
F60.78447974677055
sS'qdegager'
p435
F59.369848000709574
sS'qshooter_fort'
p436
F60.78447974677055
sS'qdribler_vers_but'
p437
F60.78447974677055
sS'qshooter_malin'
p438
F60.78447974677055
sS'qshooter_dansbut'
p439
F60.78447974677055
sS'qshooter_bas'
p440
F59.369848000709574
ss.