(dp0
(I1
I0
I1
I1
I4
I1
tp1
(dp2
S'qshooter_haut'
p3
F131.6414543201822
sS'qdribler_vers_zone'
p4
F137.08755297944916
sS'qdegager'
p5
F137.08755297944916
sS'qshooter_fort'
p6
F109.8658964834143
sS'qdribler_vers_but'
p7
F109.85705968538642
sS'qshooter_malin'
p8
F109.85705968271536
sS'qshooter_dansbut'
p9
F109.85706016423556
sS'qshooter_bas'
p10
F109.85705968311441
ss(I1
I1
I1
I0
I3
I1
tp11
(dp12
S'qshooter_haut'
p13
F198.54616366017473
sS'qdribler_vers_zone'
p14
F37.72468063383345
sS'qdegager'
p15
F207.3480930984658
sS'qshooter_fort'
p16
F207.3480930984658
sS'qdribler_vers_but'
p17
F141.7900663471324
sS'qshooter_malin'
p18
F346.9714069792941
sS'qshooter_dansbut'
p19
F346.9714069843667
sS'qshooter_bas'
p20
F207.3480930984658
ss(I0
I3
I0
I0
I3
I1
tp21
(dp22
S'qshooter_haut'
p23
F-3.4689133842704383
sS'qdribler_vers_zone'
p24
F-44.68077313424128
sS'qdegager'
p25
F20.919045674141508
sS'qshooter_fort'
p26
F-14.549487192772819
sS'qdribler_vers_but'
p27
F-1.7745553075357678
sS'qshooter_malin'
p28
F18.48233882319951
sS'qshooter_dansbut'
p29
F20.919045674141508
sS'qshooter_bas'
p30
F20.919045674141508
ss(I1
I0
I0
I0
I4
I1
tp31
(dp32
S'qshooter_haut'
p33
F99.63619235745504
sS'qdribler_vers_zone'
p34
F91.67286823844955
sS'qdegager'
p35
F105.20060573480521
sS'qshooter_fort'
p36
F105.20060573480521
sS'qdribler_vers_but'
p37
F99.63619311396282
sS'qshooter_malin'
p38
F99.63619235745503
sS'qshooter_dansbut'
p39
F99.63619235745503
sS'qshooter_bas'
p40
F105.20060573480521
ss(I0
I1
I0
I1
I4
I1
tp41
(dp42
S'qshooter_haut'
p43
F43.626946594276525
sS'qdribler_vers_zone'
p44
F25.072195811150728
sS'qdegager'
p45
F94.95761153751693
sS'qshooter_fort'
p46
F43.626946594276525
sS'qdribler_vers_but'
p47
F95.05541913098004
sS'qshooter_malin'
p48
F43.626946594276525
sS'qshooter_dansbut'
p49
F43.626946594276525
sS'qshooter_bas'
p50
F43.626946594276525
ss(I1
I1
I1
I0
I4
I1
tp51
(dp52
S'qshooter_haut'
p53
F144.88539699371145
sS'qdribler_vers_zone'
p54
F0.6994649938770838
sS'qdegager'
p55
F151.70740148322966
sS'qshooter_fort'
p56
F238.07814202308805
sS'qdribler_vers_but'
p57
F220.80399391511847
sS'qshooter_malin'
p58
F174.34897289131104
sS'qshooter_dansbut'
p59
F151.7074024598946
sS'qshooter_bas'
p60
F151.70740148322977
ss(I1
I3
I0
I0
I3
I0
tp61
(dp62
S'qshooter_haut'
p63
F21.671922375794626
sS'qdribler_vers_zone'
p64
F-67.90300588793744
sS'qdegager'
p65
F23.35494227190992
sS'qshooter_fort'
p66
F19.379060869831857
sS'qdribler_vers_but'
p67
F22.68790160332025
sS'qshooter_malin'
p68
F23.354853606996816
sS'qshooter_dansbut'
p69
F23.354942271909916
sS'qshooter_bas'
p70
F23.354942271909916
ss(I0
I1
I0
I0
I3
I1
tp71
(dp72
S'qshooter_haut'
p73
F92.04436143721477
sS'qdribler_vers_zone'
p74
F47.198796596495924
sS'qdegager'
p75
F100.93992950941158
sS'qshooter_fort'
p76
F47.19879659651166
sS'qdribler_vers_but'
p77
F78.92756146828133
sS'qshooter_malin'
p78
F100.9808167369607
sS'qshooter_dansbut'
p79
F100.9399295094116
sS'qshooter_bas'
p80
F100.93992950941158
ss(I0
I3
I0
I1
I4
I0
tp81
(dp82
S'qshooter_haut'
p83
F-25.178282391257973
sS'qdribler_vers_zone'
p84
F-25.465064585064326
sS'qdegager'
p85
F-25.718132211748124
sS'qshooter_fort'
p86
F-25.46490317209355
sS'qdribler_vers_but'
p87
F-25.614475711858443
sS'qshooter_malin'
p88
F-25.633484543868253
sS'qshooter_dansbut'
p89
F-25.718132211748124
sS'qshooter_bas'
p90
F-25.718132211748124
ss(I1
I0
I1
I1
I4
I0
tp91
(dp92
S'qshooter_haut'
p93
F135.00151473058838
sS'qdribler_vers_zone'
p94
F125.94121371464239
sS'qdegager'
p95
F159.67477451860864
sS'qshooter_fort'
p96
F140.78058304421268
sS'qdribler_vers_but'
p97
F140.78058304421268
sS'qshooter_malin'
p98
F140.78058304421268
sS'qshooter_dansbut'
p99
F140.78058304421268
sS'qshooter_bas'
p100
F140.78058304421268
ss(I1
I3
I0
I1
I4
I1
tp101
(dp102
S'qshooter_haut'
p103
F-0.8692934581618765
sS'qdribler_vers_zone'
p104
F1.3690022039862952
sS'qdegager'
p105
F1.8632294676475718
sS'qshooter_fort'
p106
F-9.109420506944623
sS'qdribler_vers_but'
p107
F-9.113037499735354
sS'qshooter_malin'
p108
F-9.113037500653203
sS'qshooter_dansbut'
p109
F-9.113037316760677
sS'qshooter_bas'
p110
F-9.113037500687273
ss(I1
I1
I0
I0
I3
I1
tp111
(dp112
S'qshooter_haut'
p113
F136.3991073862228
sS'qdribler_vers_zone'
p114
F8.31438100503183
sS'qdegager'
p115
F207.75607935932476
sS'qshooter_fort'
p116
F207.75607935932476
sS'qdribler_vers_but'
p117
F149.4642719781487
sS'qshooter_malin'
p118
F117.06947304294745
sS'qshooter_dansbut'
p119
F113.17269459323614
sS'qshooter_bas'
p120
F207.75607935932476
ss(I1
I3
I0
I0
I4
I0
tp121
(dp122
S'qshooter_haut'
p123
F12.898871510265579
sS'qdribler_vers_zone'
p124
F-111.72967225208855
sS'qdegager'
p125
F-3.8556698729343495
sS'qshooter_fort'
p126
F67.93553636349746
sS'qdribler_vers_but'
p127
F32.90142772011873
sS'qshooter_malin'
p128
F-2.562394474314859
sS'qshooter_dansbut'
p129
F-3.8556698729343495
sS'qshooter_bas'
p130
F-3.8556698729343495
ss(I1
I0
I0
I0
I4
I0
tp131
(dp132
S'qshooter_haut'
p133
F103.76938884168804
sS'qdribler_vers_zone'
p134
F58.20374982539907
sS'qdegager'
p135
F103.93891838149801
sS'qshooter_fort'
p136
F103.93891838149801
sS'qdribler_vers_but'
p137
F103.76938884168804
sS'qshooter_malin'
p138
F103.76938884168804
sS'qshooter_dansbut'
p139
F103.76938884168804
sS'qshooter_bas'
p140
F103.93891838149801
ss(I1
I1
I0
I1
I3
I1
tp141
(dp142
S'qshooter_haut'
p143
F58.17470980634478
sS'qdribler_vers_zone'
p144
F0.9223566671342364
sS'qdegager'
p145
F1.7275669656414356
sS'qshooter_fort'
p146
F157.79205987628666
sS'qdribler_vers_but'
p147
F157.79207646693806
sS'qshooter_malin'
p148
F157.79207646693806
sS'qshooter_dansbut'
p149
F157.79207646693803
sS'qshooter_bas'
p150
F157.79207646693806
ss(I1
I0
I0
I0
I3
I0
tp151
(dp152
S'qshooter_haut'
p153
F123.17132587533357
sS'qdribler_vers_zone'
p154
F58.23033399983085
sS'qdegager'
p155
F123.17132587533357
sS'qshooter_fort'
p156
F97.7962945330633
sS'qdribler_vers_but'
p157
F123.17132587533357
sS'qshooter_malin'
p158
F123.17132587533357
sS'qshooter_dansbut'
p159
F123.17132587533357
sS'qshooter_bas'
p160
F123.17132587533357
ss(I0
I3
I0
I1
I4
I1
tp161
(dp162
S'qshooter_haut'
p163
F-7.955015327934936
sS'qdribler_vers_zone'
p164
F-94.6844258415498
sS'qdegager'
p165
F48.545026543348214
sS'qshooter_fort'
p166
F48.545026543348214
sS'qdribler_vers_but'
p167
F0.042569516779035865
sS'qshooter_malin'
p168
F-8.02159269999875
sS'qshooter_dansbut'
p169
F-8.315672186080555
sS'qshooter_bas'
p170
F48.545026543348214
ss(I1
I3
I0
I1
I4
I0
tp171
(dp172
S'qshooter_haut'
p173
F4.285941354611076
sS'qdribler_vers_zone'
p174
F-35.25474100378212
sS'qdegager'
p175
F23.33463601249668
sS'qshooter_fort'
p176
F-35.32281398604631
sS'qdribler_vers_but'
p177
F-14.206168359767997
sS'qshooter_malin'
p178
F19.303722836387944
sS'qshooter_dansbut'
p179
F23.334636012496674
sS'qshooter_bas'
p180
F23.33463601249668
ss(I1
I0
I0
I1
I3
I1
tp181
(dp182
S'qshooter_haut'
p183
F101.23344230534124
sS'qdribler_vers_zone'
p184
F0.8841719144818827
sS'qdegager'
p185
F1.3130995002256667
sS'qshooter_fort'
p186
F101.23344287917479
sS'qdribler_vers_but'
p187
F101.23344287917479
sS'qshooter_malin'
p188
F101.23344287917479
sS'qshooter_dansbut'
p189
F101.23344287917479
sS'qshooter_bas'
p190
F101.23344287917479
ss(I1
I3
I1
I0
I4
I1
tp191
(dp192
S'qshooter_haut'
p193
F50.80437027497901
sS'qdribler_vers_zone'
p194
F11.177197333391245
sS'qdegager'
p195
F36.52387588297663
sS'qshooter_fort'
p196
F101.86419036051707
sS'qdribler_vers_but'
p197
F101.88491108410588
sS'qshooter_malin'
p198
F101.8849110893143
sS'qshooter_dansbut'
p199
F101.88490996140482
sS'qshooter_bas'
p200
F101.88491108954858
ss(I1
I3
I0
I0
I4
I1
tp201
(dp202
S'qshooter_haut'
p203
F-88.10826382126723
sS'qdribler_vers_zone'
p204
F-166.67516694205227
sS'qdegager'
p205
F51.497626616995746
sS'qshooter_fort'
p206
F-166.67516694205227
sS'qdribler_vers_but'
p207
F-123.04060823024267
sS'qshooter_malin'
p208
F43.01204907848921
sS'qshooter_dansbut'
p209
F51.49762625096261
sS'qshooter_bas'
p210
F51.497626616995746
ss(I1
I3
I1
I0
I3
I1
tp211
(dp212
S'qshooter_haut'
p213
F43.78321961095921
sS'qdribler_vers_zone'
p214
F45.557347533637056
sS'qdegager'
p215
F45.55743771960815
sS'qshooter_fort'
p216
F45.54425669287091
sS'qdribler_vers_but'
p217
F45.55734744571967
sS'qshooter_malin'
p218
F41.22945065388535
sS'qshooter_dansbut'
p219
F41.22598066163654
sS'qshooter_bas'
p220
F45.55734744571964
ss(I0
I0
I0
I0
I3
I1
tp221
(dp222
S'qshooter_haut'
p223
F91.22374030841922
sS'qdribler_vers_zone'
p224
F53.215274768822056
sS'qdegager'
p225
F91.22374030841922
sS'qshooter_fort'
p226
F84.98471356501832
sS'qdribler_vers_but'
p227
F91.22374030834936
sS'qshooter_malin'
p228
F91.22374030841922
sS'qshooter_dansbut'
p229
F91.22374030841922
sS'qshooter_bas'
p230
F91.22374030841922
ss(I1
I0
I1
I0
I4
I0
tp231
(dp232
S'qshooter_haut'
p233
F132.08232792179246
sS'qdribler_vers_zone'
p234
F94.69350570302066
sS'qdegager'
p235
F154.45998521349867
sS'qshooter_fort'
p236
F29.02088404936701
sS'qdribler_vers_but'
p237
F90.22447278699366
sS'qshooter_malin'
p238
F152.19989904287868
sS'qshooter_dansbut'
p239
F154.4599852134986
sS'qshooter_bas'
p240
F154.4599852134986
ss(I0
I0
I0
I0
I4
I0
tp241
(dp242
S'qshooter_haut'
p243
F16.239404701668978
sS'qdribler_vers_zone'
p244
F38.83145236221452
sS'qdegager'
p245
F16.239404701668978
sS'qshooter_fort'
p246
F39.94804195203387
sS'qdribler_vers_but'
p247
F16.23940470166898
sS'qshooter_malin'
p248
F16.239404701668978
sS'qshooter_dansbut'
p249
F16.239404701668978
sS'qshooter_bas'
p250
F16.239404701668978
ss(I1
I0
I0
I0
I3
I1
tp251
(dp252
S'qshooter_haut'
p253
F78.904289358796
sS'qdribler_vers_zone'
p254
F96.61250849759722
sS'qdegager'
p255
F111.53930869337351
sS'qshooter_fort'
p256
F111.53930869337351
sS'qdribler_vers_but'
p257
F78.904289358796
sS'qshooter_malin'
p258
F78.904289358796
sS'qshooter_dansbut'
p259
F78.904289358796
sS'qshooter_bas'
p260
F111.53930869337351
ss(I0
I3
I0
I0
I4
I1
tp261
(dp262
S'qshooter_haut'
p263
F-24.66683292168279
sS'qdribler_vers_zone'
p264
F-111.09840751246426
sS'qdegager'
p265
F5.671351100130888
sS'qshooter_fort'
p266
F-111.09840751244155
sS'qdribler_vers_but'
p267
F-54.114765309517836
sS'qshooter_malin'
p268
F5.190893791743949
sS'qshooter_dansbut'
p269
F5.671351100130888
sS'qshooter_bas'
p270
F5.671351100130888
ss(I1
I0
I0
I1
I3
I0
tp271
(dp272
S'qshooter_haut'
p273
F20.5165467796936
sS'qdribler_vers_zone'
p274
F1.2833128397368736
sS'qdegager'
p275
F2.226053447971679
sS'qshooter_fort'
p276
F98.34824120263336
sS'qdribler_vers_but'
p277
F98.37984486638122
sS'qshooter_malin'
p278
F98.37984487421326
sS'qshooter_dansbut'
p279
F98.37984314562871
sS'qshooter_bas'
p280
F98.37984487456956
ss(I1
I3
I1
I0
I4
I0
tp281
(dp282
S'qshooter_haut'
p283
F54.89564367577651
sS'qdribler_vers_zone'
p284
F44.374761293843164
sS'qdegager'
p285
F44.374761293843164
sS'qshooter_fort'
p286
F54.89564367577651
sS'qdribler_vers_but'
p287
F44.37476109750839
sS'qshooter_malin'
p288
F54.89110695272213
sS'qshooter_dansbut'
p289
F54.89564367577651
sS'qshooter_bas'
p290
F54.89564367577651
ss(I0
I0
I0
I0
I3
I0
tp291
(dp292
S'qshooter_haut'
p293
F36.18768022810064
sS'qdribler_vers_zone'
p294
F14.642344877398953
sS'qdegager'
p295
F36.18768022810064
sS'qshooter_fort'
p296
F17.703970533211074
sS'qdribler_vers_but'
p297
F36.187680228096916
sS'qshooter_malin'
p298
F36.18768022810064
sS'qshooter_dansbut'
p299
F36.18768022810064
sS'qshooter_bas'
p300
F36.18768022810064
ss(I1
I0
I1
I0
I4
I1
tp301
(dp302
S'qshooter_haut'
p303
F151.5274323338717
sS'qdribler_vers_zone'
p304
F132.07094447489843
sS'qdegager'
p305
F151.24193083927818
sS'qshooter_fort'
p306
F176.01857145111637
sS'qdribler_vers_but'
p307
F153.90230236759297
sS'qshooter_malin'
p308
F151.24196880936944
sS'qshooter_dansbut'
p309
F151.24193083927818
sS'qshooter_bas'
p310
F151.24193083927818
ss(I1
I0
I0
I1
I4
I0
tp311
(dp312
S'qshooter_haut'
p313
F96.78293230043194
sS'qdribler_vers_zone'
p314
F74.99099621800383
sS'qdegager'
p315
F76.18416173916538
sS'qshooter_fort'
p316
F96.78524989083587
sS'qdribler_vers_but'
p317
F96.78524989083587
sS'qshooter_malin'
p318
F96.78524989083587
sS'qshooter_dansbut'
p319
F96.78524989083587
sS'qshooter_bas'
p320
F96.78524989083587
ss(I1
I1
I0
I0
I4
I1
tp321
(dp322
S'qshooter_haut'
p323
F153.62702680759662
sS'qdribler_vers_zone'
p324
F-4.204961518297978
sS'qdegager'
p325
F146.9721546246392
sS'qshooter_fort'
p326
F176.53327342674007
sS'qdribler_vers_but'
p327
F170.6210496663199
sS'qshooter_malin'
p328
F154.72142455189714
sS'qshooter_dansbut'
p329
F146.9721549589111
sS'qshooter_bas'
p330
F146.9721546246393
ss(I0
I0
I0
I1
I4
I1
tp331
(dp332
S'qshooter_haut'
p333
F99.67910043612332
sS'qdribler_vers_zone'
p334
F99.44477580086557
sS'qdegager'
p335
F99.8513930277192
sS'qshooter_fort'
p336
F99.8513930277192
sS'qdribler_vers_but'
p337
F99.67910043612332
sS'qshooter_malin'
p338
F99.67910043612332
sS'qshooter_dansbut'
p339
F99.67910043612332
sS'qshooter_bas'
p340
F99.8513930277192
ss(I1
I3
I0
I0
I3
I1
tp341
(dp342
S'qshooter_haut'
p343
F17.132745529407067
sS'qdribler_vers_zone'
p344
F8.023490669488417
sS'qdegager'
p345
F18.22507439430419
sS'qshooter_fort'
p346
F8.023490669488417
sS'qdribler_vers_but'
p347
F14.88221943935656
sS'qshooter_malin'
p348
F18.257433735540346
sS'qshooter_dansbut'
p349
F18.22507439430419
sS'qshooter_bas'
p350
F18.22507439430419
ss(I1
I0
I1
I0
I3
I1
tp351
(dp352
S'qshooter_haut'
p353
F120.80521409445564
sS'qdribler_vers_zone'
p354
F181.5045360833992
sS'qdegager'
p355
F201.43394735262785
sS'qshooter_fort'
p356
F201.43394735262785
sS'qdribler_vers_but'
p357
F118.59166420096606
sS'qshooter_malin'
p358
F118.59166420096606
sS'qshooter_dansbut'
p359
F118.59166420096606
sS'qshooter_bas'
p360
F201.43394735262785
ss(I0
I3
I0
I0
I4
I0
tp361
(dp362
S'qshooter_haut'
p363
F-33.23913410521099
sS'qdribler_vers_zone'
p364
F-47.610183649922874
sS'qdegager'
p365
F-33.21156897465966
sS'qshooter_fort'
p366
F20.323471299673756
sS'qdribler_vers_but'
p367
F-21.979832471887107
sS'qshooter_malin'
p368
F-33.20701284105299
sS'qshooter_dansbut'
p369
F-33.211568974659656
sS'qshooter_bas'
p370
F-33.211568974659656
ss(I0
I3
I0
I0
I3
I0
tp371
(dp372
S'qshooter_haut'
p373
F-61.781936849887124
sS'qdribler_vers_zone'
p374
F-80.48178561103987
sS'qdegager'
p375
F-60.738360759138736
sS'qshooter_fort'
p376
F-30.419875137689296
sS'qdribler_vers_but'
p377
F-50.79827416850362
sS'qshooter_malin'
p378
F-60.70080817373169
sS'qshooter_dansbut'
p379
F-60.738360759138736
sS'qshooter_bas'
p380
F-60.738360759138736
ss(I1
I0
I0
I1
I4
I1
tp381
(dp382
S'qshooter_haut'
p383
F62.42110811737246
sS'qdribler_vers_zone'
p384
F59.00630486404221
sS'qdegager'
p385
F62.133409873387244
sS'qshooter_fort'
p386
F101.12379252142398
sS'qdribler_vers_but'
p387
F65.48265824002411
sS'qshooter_malin'
p388
F62.13342553716955
sS'qshooter_dansbut'
p389
F62.133409873387244
sS'qshooter_bas'
p390
F62.133409873387244
ss(I0
I1
I0
I0
I4
I1
tp391
(dp392
S'qshooter_haut'
p393
F92.00601376412932
sS'qdribler_vers_zone'
p394
F63.00627012066593
sS'qdegager'
p395
F143.58872456421892
sS'qshooter_fort'
p396
F63.00627012066591
sS'qdribler_vers_but'
p397
F79.12276100937655
sS'qshooter_malin'
p398
F121.91273921384568
sS'qshooter_dansbut'
p399
F143.58872362920553
sS'qshooter_bas'
p400
F143.58872456421892
ss(I0
I0
I0
I1
I4
I0
tp401
(dp402
S'qshooter_haut'
p403
F9.712955530847427
sS'qdribler_vers_zone'
p404
F39.594802461780034
sS'qdegager'
p405
F9.712955530847095
sS'qshooter_fort'
p406
F39.594802461780034
sS'qdribler_vers_but'
p407
F9.712958677772875
sS'qshooter_malin'
p408
F9.712955530847095
sS'qshooter_dansbut'
p409
F9.712955530847095
sS'qshooter_bas'
p410
F9.712955530847095
ss(I1
I1
I0
I1
I4
I1
tp411
(dp412
S'qshooter_haut'
p413
F30.110082017348116
sS'qdribler_vers_zone'
p414
F0.9943975379054045
sS'qdegager'
p415
F1.5362484735407294
sS'qshooter_fort'
p416
F147.26449776007829
sS'qdribler_vers_but'
p417
F147.31164462571684
sS'qshooter_malin'
p418
F147.31164463732017
sS'qshooter_dansbut'
p419
F147.31164206088027
sS'qshooter_bas'
p420
F147.31164463785404
ss(I1
I3
I1
I0
I3
I0
tp421
(dp422
S'qshooter_haut'
p423
F71.74974903288799
sS'qdribler_vers_zone'
p424
F-100.74641641944336
sS'qdegager'
p425
F111.53289117250968
sS'qshooter_fort'
p426
F14.406079308198873
sS'qdribler_vers_but'
p427
F46.26846463500788
sS'qshooter_malin'
p428
F104.8585644461087
sS'qshooter_dansbut'
p429
F111.53289117250968
sS'qshooter_bas'
p430
F111.53289117250968
ss(I0
I0
I0
I0
I4
I1
tp431
(dp432
S'qshooter_haut'
p433
F65.17421434145831
sS'qdribler_vers_zone'
p434
F7.135610855169501
sS'qdegager'
p435
F65.17421434145831
sS'qshooter_fort'
p436
F39.90175401030796
sS'qdribler_vers_but'
p437
F65.17421434145831
sS'qshooter_malin'
p438
F65.17421434145831
sS'qshooter_dansbut'
p439
F65.17421434145831
sS'qshooter_bas'
p440
F65.17421434145831
ss(I1
I0
I1
I0
I3
I0
tp441
(dp442
S'qshooter_haut'
p443
F197.09467502367013
sS'qdribler_vers_zone'
p444
F39.91803278689268
sS'qdegager'
p445
F197.094675025005
sS'qshooter_fort'
p446
F137.6795416528745
sS'qdribler_vers_but'
p447
F197.09439715199795
sS'qshooter_malin'
p448
F197.094675025005
sS'qshooter_dansbut'
p449
F197.094675025005
sS'qshooter_bas'
p450
F197.094675025005
ss.